#include <math.h>
#include <stdio.h>
#include <stdlib.h>
#include <string.h>

int main(int argc, char* argv[])
{
	int yuan[100];
	int xin[100];
	int n,i,j;
	scanf("%d",&n);
	for(i=1;i<=n;i++)
		scanf("%d",&yuan[i]);
	for(i=1;i<=n;i++)
	{
       j=n-i+1;
	   xin[j]=yuan[i];
	}
	printf("%d",xin[1]);
	for(j=2;j<=n;j++)
	printf(" %d",xin[j]);
	return 0;
}